target datalayout = "e-m:e-p270:32:32-p271:32:32-p272:64:64-i64:64-i128:128-f80:128-n8:16:32:64-S128"
target triple = "x86_64-pc-linux-gnu"

%struct.tMPI_Thread = type { i64, i32 }

; Function Attrs: mustprogress uwtable
define noundef i32 @_Z16tMPI_Thread_joinP11tMPI_ThreadPPv(ptr noundef %0, ptr noundef %1) #2 {
  %3 = alloca i32, align 4
  %4 = alloca ptr, align 8
  %5 = alloca ptr, align 8
  %6 = alloca i32, align 4
  %7 = alloca i64, align 8
  store ptr %0, ptr %4, align 8
  store ptr %1, ptr %5, align 8
  %8 = load ptr, ptr %4, align 8
  %9 = getelementptr inbounds %struct.tMPI_Thread, ptr %8, i32 0, i32 0
  %10 = load i64, ptr %9, align 8
  store i64 %10, ptr %7, align 8
  %11 = load i64, ptr %7, align 8
  %12 = load ptr, ptr %5, align 8
  %13 = call i32 @pthread_join(i64 noundef %11, ptr noundef %12)
  store i32 %13, ptr %6, align 4
  %14 = load i32, ptr %6, align 4
  %15 = icmp ne i32 %14, 0
  br i1 %15, label %16, label %18

16:                                               ; preds = %2
  %17 = load i32, ptr %6, align 4
  store i32 %17, ptr %3, align 4
  br label %20

18:                                               ; preds = %2
  %19 = load ptr, ptr %4, align 8
  call void @free(ptr noundef %19) #8
  store i32 0, ptr %3, align 4
  br label %20

20:                                               ; preds = %18, %16
  %21 = load i32, ptr %3, align 4
  ret i32 %21
}