; Function Attrs: mustprogress uwtable
define noundef i32 @_Z16tMPI_Thread_joinP11tMPI_ThreadPPv(ptr nocapture noundef %0, ptr noundef %1) local_unnamed_addr #4 {
  %3 = load i64, ptr %0, align 8
  %4 = tail call i32 @pthread_join(i64 noundef %3, ptr noundef %1)
  %.not = icmp eq i32 %4, 0
  br i1 %.not, label %5, label %6

5:                                                ; preds = %2
  tail call void @free(ptr noundef nonnull %0) #13
  br label %6

6:                                                ; preds = %2, %5
  ret i32 %4
}